; Function Attrs: mustprogress nofree norecurse nosync nounwind willreturn memory(read, inaccessiblemem: none) uwtable
define dso_local noundef i32 @_ZN5cmsys17SystemInformation22GetProcessorCacheXSizeEl(ptr noundef nonnull readonly align 8 captures(none) dereferenceable(8) %0, i64 noundef %1) local_unnamed_addr #7 align 2 {
  %3 = load ptr, ptr %0, align 8, !tbaa !4
  switch i64 %1, label %_ZNK5cmsys31SystemInformationImplementation22GetProcessorCacheXSizeEl.exit [
    i64 32768, label %_ZNK5cmsys31SystemInformationImplementation22GetProcessorCacheXSizeEl.exit.sink.split
    i64 65536, label %4
    i64 131072, label %5
  ]

4:                                                ; preds = %2
  br label %_ZNK5cmsys31SystemInformationImplementation22GetProcessorCacheXSizeEl.exit.sink.split

5:                                                ; preds = %2
  br label %_ZNK5cmsys31SystemInformationImplementation22GetProcessorCacheXSizeEl.exit.sink.split

_ZNK5cmsys31SystemInformationImplementation22GetProcessorCacheXSizeEl.exit.sink.split: ; preds = %2, %5, %4
  %.sink1 = phi i64 [ 28, %4 ], [ 32, %5 ], [ 24, %2 ]
  %6 = getelementptr inbounds nuw i8, ptr %3, i64 %.sink1
  %7 = load i32, ptr %6, align 4, !tbaa !75
  br label %_ZNK5cmsys31SystemInformationImplementation22GetProcessorCacheXSizeEl.exit

_ZNK5cmsys31SystemInformationImplementation22GetProcessorCacheXSizeEl.exit: ; preds = %_ZNK5cmsys31SystemInformationImplementation22GetProcessorCacheXSizeEl.exit.sink.split, %2
  %.0.i = phi i32 [ -1, %2 ], [ %7, %_ZNK5cmsys31SystemInformationImplementation22GetProcessorCacheXSizeEl.exit.sink.split ]
  ret i32 %.0.i
}